; ModuleID = 'source-C-CXX/51/1095.c'
source_filename = "source-C-CXX/51/1095.c"
target datalayout = "e-m:e-p270:32:32-p271:32:32-p272:64:64-i64:64-f80:128-n8:16:32:64-S128"
target triple = "x86_64-pc-linux-gnu"

@.str = private unnamed_addr constant [7 x i8] c"%d %d\0A\00", align 1
@.str.1 = private unnamed_addr constant [3 x i8] c"%d\00", align 1
@.str.2 = private unnamed_addr constant [4 x i8] c"%d \00", align 1

; Function Attrs: nounwind sspstrong uwtable
define dso_local i32 @main() local_unnamed_addr #0 {
  %1 = alloca [100 x i32], align 16
  %2 = bitcast [100 x i32]* %1 to i8*
  %3 = alloca i32, align 4
  %4 = alloca i32, align 4
  call void @llvm.lifetime.start.p0i8(i64 400, i8* nonnull %2) #7
  %5 = bitcast i32* %3 to i8*
  call void @llvm.lifetime.start.p0i8(i64 4, i8* nonnull %5) #7
  %6 = bitcast i32* %4 to i8*
  call void @llvm.lifetime.start.p0i8(i64 4, i8* nonnull %6) #7
  %7 = call i32 (i8*, ...) @__isoc99_scanf(i8* getelementptr inbounds ([7 x i8], [7 x i8]* @.str, i64 0, i64 0), i32* nonnull %3, i32* nonnull %4)
  %8 = load i32, i32* %3, align 4, !tbaa !5
  %9 = icmp sgt i32 %8, 0
  br i1 %9, label %10, label %18

10:                                               ; preds = %0, %10
  %11 = phi i64 [ %14, %10 ], [ 0, %0 ]
  %12 = getelementptr inbounds [100 x i32], [100 x i32]* %1, i64 0, i64 %11
  %13 = call i32 (i8*, ...) @__isoc99_scanf(i8* getelementptr inbounds ([3 x i8], [3 x i8]* @.str.1, i64 0, i64 0), i32* nonnull %12)
  %14 = add nuw nsw i64 %11, 1
  %15 = load i32, i32* %3, align 4, !tbaa !5
  %16 = sext i32 %15 to i64
  %17 = icmp slt i64 %14, %16
  br i1 %17, label %10, label %18, !llvm.loop !9

18:                                               ; preds = %10, %0
  %19 = phi i32 [ %8, %0 ], [ %15, %10 ]
  %20 = sext i32 %19 to i64
  %21 = shl nsw i64 %20, 2
  %22 = call noalias align 16 i8* @malloc(i64 %21) #7
  %23 = bitcast i8* %22 to i32*
  %24 = load i32, i32* %4, align 4, !tbaa !5
  %25 = sub i32 %19, %24
  %26 = sext i32 %24 to i64
  %27 = icmp sgt i32 %24, 0
  br i1 %27, label %28, label %45

28:                                               ; preds = %18
  %29 = sext i32 %25 to i64
  %30 = add nsw i64 %26, %29
  %31 = sub nsw i64 %30, %20
  %32 = shl nsw i64 %31, 2
  %33 = getelementptr i8, i8* %22, i64 %32
  %34 = getelementptr [100 x i32], [100 x i32]* %1, i64 0, i64 %29
  %35 = bitcast i32* %34 to i8*
  %36 = add i32 %19, 1
  %37 = sub i32 %36, %24
  %38 = call i32 @llvm.smax.i32(i32 %19, i32 %37)
  %39 = add i32 %24, %38
  %40 = xor i32 %19, -1
  %41 = add i32 %39, %40
  %42 = zext i32 %41 to i64
  %43 = shl nuw nsw i64 %42, 2
  %44 = add nuw nsw i64 %43, 4
  call void @llvm.memcpy.p0i8.p0i8.i64(i8* noundef nonnull align 4 dereferenceable(1) %33, i8* noundef nonnull align 4 dereferenceable(1) %35, i64 %44, i1 false)
  br label %45

45:                                               ; preds = %28, %18
  %46 = icmp sgt i32 %25, 0
  br i1 %46, label %47, label %55

47:                                               ; preds = %45
  %48 = shl nsw i64 %26, 2
  %49 = getelementptr i8, i8* %22, i64 %48
  %50 = xor i32 %24, -1
  %51 = add i32 %19, %50
  %52 = zext i32 %51 to i64
  %53 = shl nuw nsw i64 %52, 2
  %54 = add nuw nsw i64 %53, 4
  call void @llvm.memcpy.p0i8.p0i8.i64(i8* noundef nonnull align 4 dereferenceable(1) %49, i8* noundef nonnull align 16 %2, i64 %54, i1 false)
  br label %55

55:                                               ; preds = %47, %45
  %56 = icmp sgt i32 %19, 1
  br i1 %56, label %57, label %69

57:                                               ; preds = %55, %57
  %58 = phi i64 [ %62, %57 ], [ 0, %55 ]
  %59 = getelementptr inbounds i32, i32* %23, i64 %58
  %60 = load i32, i32* %59, align 4, !tbaa !5
  %61 = call i32 (i8*, ...) @printf(i8* nonnull dereferenceable(1) getelementptr inbounds ([4 x i8], [4 x i8]* @.str.2, i64 0, i64 0), i32 %60)
  %62 = add nuw nsw i64 %58, 1
  %63 = load i32, i32* %3, align 4, !tbaa !5
  %64 = add nsw i32 %63, -1
  %65 = sext i32 %64 to i64
  %66 = icmp slt i64 %62, %65
  br i1 %66, label %57, label %67, !llvm.loop !11

67:                                               ; preds = %57
  %68 = sext i32 %63 to i64
  br label %69

69:                                               ; preds = %67, %55
  %70 = phi i64 [ %68, %67 ], [ %20, %55 ]
  %71 = add nsw i64 %70, -1
  %72 = getelementptr inbounds i32, i32* %23, i64 %71
  %73 = load i32, i32* %72, align 4, !tbaa !5
  %74 = call i32 (i8*, ...) @printf(i8* nonnull dereferenceable(1) getelementptr inbounds ([3 x i8], [3 x i8]* @.str.1, i64 0, i64 0), i32 %73)
  call void @free(i8* %22) #7
  call void @llvm.lifetime.end.p0i8(i64 4, i8* nonnull %6) #7
  call void @llvm.lifetime.end.p0i8(i64 4, i8* nonnull %5) #7
  call void @llvm.lifetime.end.p0i8(i64 400, i8* nonnull %2) #7
  ret i32 0
}

; Function Attrs: argmemonly mustprogress nofree nosync nounwind willreturn
declare void @llvm.lifetime.start.p0i8(i64 immarg, i8* nocapture) #1

; Function Attrs: nofree nounwind
declare noundef i32 @__isoc99_scanf(i8* nocapture noundef readonly, ...) local_unnamed_addr #2

; Function Attrs: inaccessiblememonly mustprogress nofree nounwind willreturn
declare noalias noundef align 16 i8* @malloc(i64 noundef) local_unnamed_addr #3

; Function Attrs: nofree nounwind
declare noundef i32 @printf(i8* nocapture noundef readonly, ...) local_unnamed_addr #2

; Function Attrs: inaccessiblemem_or_argmemonly mustprogress nounwind willreturn
declare void @free(i8* nocapture noundef) local_unnamed_addr #4

; Function Attrs: argmemonly mustprogress nofree nosync nounwind willreturn
declare void @llvm.lifetime.end.p0i8(i64 immarg, i8* nocapture) #1

; Function Attrs: nofree nosync nounwind readnone speculatable willreturn
declare i32 @llvm.smax.i32(i32, i32) #5

; Function Attrs: argmemonly nofree nounwind willreturn
declare void @llvm.memcpy.p0i8.p0i8.i64(i8* noalias nocapture writeonly, i8* noalias nocapture readonly, i64, i1 immarg) #6


!llvm.module.flags = !{!0, !1, !2, !3}
!llvm.ident = !{!4}

!0 = !{i32 1, !"wchar_size", i32 4}
!1 = !{i32 7, !"PIC Level", i32 2}
!2 = !{i32 7, !"PIE Level", i32 2}
!3 = !{i32 7, !"uwtable", i32 1}
!4 = !{!"clang version 13.0.0"}
!5 = !{!6, !6, i64 0}
!6 = !{!"int", !7, i64 0}
!7 = !{!"omnipotent char", !8, i64 0}
!8 = !{!"Simple C/C++ TBAA"}
!9 = distinct !{!9, !10}
!10 = !{!"llvm.loop.mustprogress"}
!11 = distinct !{!11, !10}
